target datalayout = "e-m:e-p270:32:32-p271:32:32-p272:64:64-i64:64-i128:128-f80:128-n8:16:32:64-S128"
target triple = "x86_64-pc-linux-gnu"

@hf_gtpv2_pres_rep_area_info_id = internal global i32 0, align 4
@hf_gtpv2_pres_rep_area_info_additional_id = internal global i32 0, align 4
@hf_gtpv2_pres_rep_area_info_flags = internal global i32 0, align 4
@hf_gtpv2_pres_rep_area_info_flags_no_inapra = internal global i32 0, align 4
@ett_gtpv2_pres_rep_area_info = internal global i32 0, align 4

; Function Attrs: null_pointer_is_valid sspstrong uwtable
define internal void @dissect_gtpv2_pres_rep_area_information(ptr noundef %0, ptr noundef %1, ptr noundef %2, ptr noundef %3, i16 noundef zeroext %4, i8 noundef zeroext %5, i8 noundef zeroext %6, ptr noundef %7) #1 {
  %9 = alloca ptr, align 8
  %10 = alloca ptr, align 8
  %11 = alloca ptr, align 8
  %12 = alloca ptr, align 8
  %13 = alloca i16, align 2
  %14 = alloca i8, align 1
  %15 = alloca i8, align 1
  %16 = alloca ptr, align 8
  %17 = alloca i32, align 4
  %18 = alloca i64, align 8
  store ptr %0, ptr %9, align 8
  store ptr %1, ptr %10, align 8
  store ptr %2, ptr %11, align 8
  store ptr %3, ptr %12, align 8
  store i16 %4, ptr %13, align 2
  store i8 %5, ptr %14, align 1
  store i8 %6, ptr %15, align 1
  store ptr %7, ptr %16, align 8
  call void @llvm.lifetime.start.p0(i64 4, ptr %17) #11
  store i32 0, ptr %17, align 4
  call void @llvm.lifetime.start.p0(i64 8, ptr %18) #11
  store i64 0, ptr %18, align 8
  %19 = load ptr, ptr %11, align 8
  %20 = load i32, ptr @hf_gtpv2_pres_rep_area_info_id, align 4
  %21 = load ptr, ptr %9, align 8
  %22 = load i32, ptr %17, align 4
  %23 = call ptr @proto_tree_add_item(ptr noundef %19, i32 noundef %20, ptr noundef %21, i32 noundef %22, i32 noundef 3, i32 noundef 0)
  %24 = load i32, ptr %17, align 4
  %25 = add i32 %24, 3
  store i32 %25, ptr %17, align 4
  %26 = load ptr, ptr %11, align 8
  %27 = load ptr, ptr %9, align 8
  %28 = load i32, ptr %17, align 4
  %29 = load i32, ptr @hf_gtpv2_pres_rep_area_info_flags, align 4
  %30 = load i32, ptr @ett_gtpv2_pres_rep_area_info, align 4
  %31 = call ptr @proto_tree_add_bitmask_with_flags_ret_uint64(ptr noundef %26, ptr noundef %27, i32 noundef %28, i32 noundef %29, i32 noundef %30, ptr noundef @dissect_gtpv2_pres_rep_area_information.gtpv2_pres_rep_area_info_flags, i32 noundef 0, i32 noundef 14, ptr noundef %18)
  %32 = load i32, ptr %17, align 4
  %33 = add i32 %32, 1
  store i32 %33, ptr %17, align 4
  %34 = load i64, ptr %18, align 8
  %35 = and i64 %34, 4
  %36 = icmp ne i64 %35, 0
  br i1 %36, label %37, label %72

37:                                               ; preds = %8
  %38 = load ptr, ptr %11, align 8
  %39 = load i32, ptr @hf_gtpv2_pres_rep_area_info_additional_id, align 4
  %40 = load ptr, ptr %9, align 8
  %41 = load i32, ptr %17, align 4
  %42 = call ptr @proto_tree_add_item(ptr noundef %38, i32 noundef %39, ptr noundef %40, i32 noundef %41, i32 noundef 3, i32 noundef 0)
  %43 = load i32, ptr %17, align 4
  %44 = add i32 %43, 3
  store i32 %44, ptr %17, align 4
  br label %45

45:                                               ; preds = %70, %37
  %46 = load i32, ptr %17, align 4
  %47 = load i16, ptr %13, align 2
  %48 = zext i16 %47 to i32
  %49 = icmp slt i32 %46, %48
  br i1 %49, label %50, label %71

50:                                               ; preds = %45
  %51 = load ptr, ptr %11, align 8
  %52 = load ptr, ptr %9, align 8
  %53 = load i32, ptr %17, align 4
  %54 = load i32, ptr @hf_gtpv2_pres_rep_area_info_flags_no_inapra, align 4
  %55 = load i32, ptr @ett_gtpv2_pres_rep_area_info, align 4
  %56 = call ptr @proto_tree_add_bitmask_with_flags_ret_uint64(ptr noundef %51, ptr noundef %52, i32 noundef %53, i32 noundef %54, i32 noundef %55, ptr noundef @dissect_gtpv2_pres_rep_area_information.gtpv2_pres_rep_area_info_flags_no_inapra, i32 noundef 0, i32 noundef 14, ptr noundef %18)
  %57 = load i32, ptr %17, align 4
  %58 = add i32 %57, 1
  store i32 %58, ptr %17, align 4
  %59 = load i64, ptr %18, align 8
  %60 = and i64 %59, 4
  %61 = icmp ne i64 %60, 0
  br i1 %61, label %62, label %70

62:                                               ; preds = %50
  %63 = load ptr, ptr %11, align 8
  %64 = load i32, ptr @hf_gtpv2_pres_rep_area_info_additional_id, align 4
  %65 = load ptr, ptr %9, align 8
  %66 = load i32, ptr %17, align 4
  %67 = call ptr @proto_tree_add_item(ptr noundef %63, i32 noundef %64, ptr noundef %65, i32 noundef %66, i32 noundef 3, i32 noundef 0)
  %68 = load i32, ptr %17, align 4
  %69 = add i32 %68, 3
  store i32 %69, ptr %17, align 4
  br label %70

70:                                               ; preds = %62, %50
  br label %45, !llvm.loop !25

71:                                               ; preds = %45
  br label %72

72:                                               ; preds = %71, %8
  call void @llvm.lifetime.end.p0(i64 8, ptr %18) #11
  call void @llvm.lifetime.end.p0(i64 4, ptr %17) #11
  ret void
}