; Function Attrs: null_pointer_is_valid sspstrong uwtable
define internal void @dissect_gtpv2_pres_rep_area_information(ptr noundef %0, ptr readnone captures(none) %1, ptr noundef %2, ptr readnone captures(none) %3, i16 noundef zeroext %4, i8 zeroext %5, i8 zeroext %6, ptr readnone captures(none) %7) #1 {
  %9 = alloca i64, align 8
  call void @llvm.lifetime.start.p0(i64 8, ptr nonnull %9) #12
  store i64 0, ptr %9, align 8
  %10 = load i32, ptr @hf_gtpv2_pres_rep_area_info_id, align 4
  %11 = tail call ptr @proto_tree_add_item(ptr noundef %2, i32 noundef %10, ptr noundef %0, i32 noundef 0, i32 noundef 3, i32 noundef 0)
  %12 = load i32, ptr @hf_gtpv2_pres_rep_area_info_flags, align 4
  %13 = load i32, ptr @ett_gtpv2_pres_rep_area_info, align 4
  %14 = call ptr @proto_tree_add_bitmask_with_flags_ret_uint64(ptr noundef %2, ptr noundef %0, i32 noundef 3, i32 noundef %12, i32 noundef %13, ptr noundef nonnull @dissect_gtpv2_pres_rep_area_information.gtpv2_pres_rep_area_info_flags, i32 noundef 0, i32 noundef 14, ptr noundef nonnull %9)
  %15 = load i64, ptr %9, align 8
  %16 = and i64 %15, 4
  %.not = icmp eq i64 %16, 0
  br i1 %.not, label %.loopexit, label %17

17:                                               ; preds = %8
  %18 = load i32, ptr @hf_gtpv2_pres_rep_area_info_additional_id, align 4
  %19 = call ptr @proto_tree_add_item(ptr noundef %2, i32 noundef %18, ptr noundef %0, i32 noundef 4, i32 noundef 3, i32 noundef 0)
  %20 = zext i16 %4 to i32
  %21 = icmp ugt i16 %4, 7
  br i1 %21, label %.lr.ph, label %.loopexit

.lr.ph:                                           ; preds = %17, %32
  %.022 = phi i32 [ %.1, %32 ], [ 7, %17 ]
  %22 = load i32, ptr @hf_gtpv2_pres_rep_area_info_flags_no_inapra, align 4
  %23 = load i32, ptr @ett_gtpv2_pres_rep_area_info, align 4
  %24 = call ptr @proto_tree_add_bitmask_with_flags_ret_uint64(ptr noundef %2, ptr noundef %0, i32 noundef %.022, i32 noundef %22, i32 noundef %23, ptr noundef nonnull @dissect_gtpv2_pres_rep_area_information.gtpv2_pres_rep_area_info_flags_no_inapra, i32 noundef 0, i32 noundef 14, ptr noundef nonnull %9)
  %25 = add nsw i32 %.022, 1
  %26 = load i64, ptr %9, align 8
  %27 = and i64 %26, 4
  %.not21 = icmp eq i64 %27, 0
  br i1 %.not21, label %32, label %28

28:                                               ; preds = %.lr.ph
  %29 = load i32, ptr @hf_gtpv2_pres_rep_area_info_additional_id, align 4
  %30 = call ptr @proto_tree_add_item(ptr noundef %2, i32 noundef %29, ptr noundef %0, i32 noundef %25, i32 noundef 3, i32 noundef 0)
  %31 = add nsw i32 %.022, 4
  br label %32

32:                                               ; preds = %28, %.lr.ph
  %.1 = phi i32 [ %31, %28 ], [ %25, %.lr.ph ]
  %33 = icmp slt i32 %.1, %20
  br i1 %33, label %.lr.ph, label %.loopexit, !llvm.loop !26

.loopexit:                                        ; preds = %32, %17, %8
  call void @llvm.lifetime.end.p0(i64 8, ptr nonnull %9) #12
  ret void
}